; Function Attrs: mustprogress nofree nounwind willreturn memory(read) uwtable
define noundef zeroext i1 @_ZNK5Ipopt16RegisteredOption24string_equal_insensitiveERKNSt7__cxx1112basic_stringIcSt11char_traitsIcESaIcEEES8_(ptr noundef nonnull readnone align 8 captures(none) dereferenceable(220) %0, ptr noundef nonnull readonly align 8 captures(none) dereferenceable(32) %1, ptr noundef nonnull readonly align 8 captures(none) dereferenceable(32) %2) local_unnamed_addr #6 align 2 {
  %4 = getelementptr inbounds nuw i8, ptr %1, i64 8
  %5 = load i64, ptr %4, align 8, !tbaa !9
  %6 = getelementptr inbounds nuw i8, ptr %2, i64 8
  %7 = load i64, ptr %6, align 8, !tbaa !9
  %.not = icmp eq i64 %5, %7
  br i1 %.not, label %8, label %.loopexit

8:                                                ; preds = %3
  %9 = load ptr, ptr %1, align 8, !tbaa !27
  %10 = getelementptr inbounds nuw i8, ptr %9, i64 %5
  %.not1213 = icmp samesign eq i64 %5, 0
  br i1 %.not1213, label %.loopexit, label %.lr.ph.preheader

.lr.ph.preheader:                                 ; preds = %8
  %11 = load ptr, ptr %2, align 8, !tbaa !27
  br label %.lr.ph

.lr.ph:                                           ; preds = %.lr.ph, %.lr.ph.preheader
  %.sroa.09.015 = phi ptr [ %9, %.lr.ph.preheader ], [ %18, %.lr.ph ]
  %.sroa.07.014 = phi ptr [ %11, %.lr.ph.preheader ], [ %19, %.lr.ph ]
  %12 = load i8, ptr %.sroa.09.015, align 1, !tbaa !12
  %13 = sext i8 %12 to i32
  %14 = tail call i32 @toupper(i32 noundef %13) #26
  %15 = load i8, ptr %.sroa.07.014, align 1, !tbaa !12
  %16 = sext i8 %15 to i32
  %17 = tail call i32 @toupper(i32 noundef %16) #26
  %.not6 = icmp eq i32 %14, %17
  %18 = getelementptr inbounds nuw i8, ptr %.sroa.09.015, i64 1
  %19 = getelementptr inbounds nuw i8, ptr %.sroa.07.014, i64 1
  %.not12 = icmp ne ptr %18, %10
  %or.cond.not = select i1 %.not6, i1 %.not12, i1 false
  br i1 %or.cond.not, label %.lr.ph, label %.loopexit, !llvm.loop !53

.loopexit:                                        ; preds = %.lr.ph, %8, %3
  %.0 = phi i1 [ false, %3 ], [ true, %8 ], [ %.not6, %.lr.ph ]
  ret i1 %.0
}